target datalayout = "e-m:e-p270:32:32-p271:32:32-p272:64:64-i64:64-i128:128-f80:128-n8:16:32:64-S128"
target triple = "x86_64-pc-linux-gnu"

%"class.boost::filesystem::path" = type { %"class.std::__cxx11::basic_string" }
%"class.std::__cxx11::basic_string" = type { %"struct.std::__cxx11::basic_string<char>::_Alloc_hider", i64, %union.anon }
%"struct.std::__cxx11::basic_string<char>::_Alloc_hider" = type { ptr }
%union.anon = type { i64, [8 x i8] }

; Function Attrs: inlinehint mustprogress nounwind uwtable
define internal noundef i64 @_ZN12_GLOBAL__N_114find_separatorEPKcm(ptr noundef %0, i64 noundef %1) #4 {
  %3 = alloca ptr, align 8
  %4 = alloca i64, align 8
  %5 = alloca ptr, align 8
  %6 = alloca i64, align 8
  store ptr %0, ptr %3, align 8, !tbaa !3
  store i64 %1, ptr %4, align 8, !tbaa !7
  call void @llvm.lifetime.start.p0(i64 8, ptr %5) #11
  %7 = load ptr, ptr %3, align 8, !tbaa !3
  %8 = load i64, ptr %4, align 8, !tbaa !7
  %9 = call noundef ptr @memchr(ptr noundef %7, i32 noundef 47, i64 noundef %8) #19
  store ptr %9, ptr %5, align 8, !tbaa !3
  call void @llvm.lifetime.start.p0(i64 8, ptr %6) #11
  %10 = load i64, ptr %4, align 8, !tbaa !7
  store i64 %10, ptr %6, align 8, !tbaa !7
  %11 = load ptr, ptr %5, align 8, !tbaa !3
  %12 = icmp ne ptr %11, null
  %13 = xor i1 %12, true
  %14 = xor i1 %13, true
  %15 = zext i1 %14 to i64
  %16 = call i64 @llvm.expect.i64(i64 %15, i64 1)
  %17 = icmp ne i64 %16, 0
  br i1 %17, label %18, label %24

18:                                               ; preds = %2
  %19 = load ptr, ptr %5, align 8, !tbaa !3
  %20 = load ptr, ptr %3, align 8, !tbaa !3
  %21 = ptrtoint ptr %19 to i64
  %22 = ptrtoint ptr %20 to i64
  %23 = sub i64 %21, %22
  store i64 %23, ptr %6, align 8, !tbaa !7
  br label %24

24:                                               ; preds = %18, %2
  %25 = load i64, ptr %6, align 8, !tbaa !7
  call void @llvm.lifetime.end.p0(i64 8, ptr %6) #11
  call void @llvm.lifetime.end.p0(i64 8, ptr %5) #11
  ret i64 %25
}

; Function Attrs: inlinehint mustprogress nounwind uwtable
define linkonce_odr hidden noundef zeroext i1 @_ZN5boost10filesystem6detail22is_directory_separatorEc(i8 noundef signext %0) #4 comdat {
  %2 = alloca i8, align 1
  store i8 %0, ptr %2, align 1, !tbaa !9
  %3 = load i8, ptr %2, align 1, !tbaa !9
  %4 = sext i8 %3 to i32
  %5 = icmp eq i32 %4, 47
  ret i1 %5
}

; Function Attrs: mustprogress nounwind uwtable
define available_externally noundef ptr @_ZNKSt7__cxx1112basic_stringIcSt11char_traitsIcESaIcEE7_M_dataEv(ptr noundef nonnull align 8 dereferenceable(32) %0) #2 align 2 {
  %2 = alloca ptr, align 8
  store ptr %0, ptr %2, align 8, !tbaa !3
  %3 = load ptr, ptr %2, align 8
  %4 = getelementptr inbounds nuw %"class.std::__cxx11::basic_string", ptr %3, i32 0, i32 0
  %5 = getelementptr inbounds nuw %"struct.std::__cxx11::basic_string<char>::_Alloc_hider", ptr %4, i32 0, i32 0
  %6 = load ptr, ptr %5, align 8, !tbaa !53
  ret ptr %6
}

; Function Attrs: mustprogress nounwind uwtable
define internal noundef i64 @_ZN12_GLOBAL__N_125find_root_directory_startEPKcmRm(ptr noundef %0, i64 noundef %1, ptr noundef nonnull align 8 dereferenceable(8) %2) #2 {
  %4 = alloca i64, align 8
  %5 = alloca ptr, align 8
  %6 = alloca i64, align 8
  %7 = alloca ptr, align 8
  %8 = alloca i8, align 1
  %9 = alloca i64, align 8
  %10 = alloca i32, align 4
  store ptr %0, ptr %5, align 8, !tbaa !3
  store i64 %1, ptr %6, align 8, !tbaa !7
  store ptr %2, ptr %7, align 8, !tbaa !3
  %11 = load ptr, ptr %7, align 8, !tbaa !3
  store i64 0, ptr %11, align 8, !tbaa !7
  %12 = load i64, ptr %6, align 8, !tbaa !7
  %13 = icmp eq i64 %12, 0
  br i1 %13, label %14, label %15

14:                                               ; preds = %3
  store i64 0, ptr %4, align 8
  br label %67

15:                                               ; preds = %3
  call void @llvm.lifetime.start.p0(i64 1, ptr %8) #11
  store i8 0, ptr %8, align 1, !tbaa !12
  call void @llvm.lifetime.start.p0(i64 8, ptr %9) #11
  store i64 0, ptr %9, align 8, !tbaa !7
  %16 = load ptr, ptr %5, align 8, !tbaa !3
  %17 = getelementptr inbounds i8, ptr %16, i64 0
  %18 = load i8, ptr %17, align 1, !tbaa !9
  %19 = call noundef zeroext i1 @_ZN5boost10filesystem6detail22is_directory_separatorEc(i8 noundef signext %18) #11
  br i1 %19, label %20, label %43

20:                                               ; preds = %15
  %21 = load i64, ptr %6, align 8, !tbaa !7
  %22 = icmp uge i64 %21, 2
  br i1 %22, label %23, label %42

23:                                               ; preds = %20
  %24 = load ptr, ptr %5, align 8, !tbaa !3
  %25 = getelementptr inbounds i8, ptr %24, i64 1
  %26 = load i8, ptr %25, align 1, !tbaa !9
  %27 = call noundef zeroext i1 @_ZN5boost10filesystem6detail22is_directory_separatorEc(i8 noundef signext %26) #11
  br i1 %27, label %28, label %42

28:                                               ; preds = %23
  %29 = load i64, ptr %6, align 8, !tbaa !7
  %30 = icmp eq i64 %29, 2
  br i1 %30, label %31, label %33

31:                                               ; preds = %28
  %32 = load ptr, ptr %7, align 8, !tbaa !3
  store i64 2, ptr %32, align 8, !tbaa !7
  store i64 2, ptr %4, align 8
  store i32 1, ptr %10, align 4
  br label %66

33:                                               ; preds = %28
  %34 = load ptr, ptr %5, align 8, !tbaa !3
  %35 = getelementptr inbounds i8, ptr %34, i64 2
  %36 = load i8, ptr %35, align 1, !tbaa !9
  %37 = call noundef zeroext i1 @_ZN5boost10filesystem6detail22is_directory_separatorEc(i8 noundef signext %36) #11
  br i1 %37, label %38, label %39

38:                                               ; preds = %33
  store i64 0, ptr %4, align 8
  store i32 1, ptr %10, align 4
  br label %66

39:                                               ; preds = %33
  store i8 1, ptr %8, align 1, !tbaa !12
  %40 = load i64, ptr %9, align 8, !tbaa !7
  %41 = add i64 %40, 2
  store i64 %41, ptr %9, align 8, !tbaa !7
  br label %49

42:                                               ; preds = %23, %20
  store i64 0, ptr %4, align 8
  store i32 1, ptr %10, align 4
  br label %66

43:                                               ; preds = %15
  %44 = load i8, ptr %8, align 1, !tbaa !12, !range !16, !noundef !17
  %45 = trunc i8 %44 to i1
  br i1 %45, label %48, label %46

46:                                               ; preds = %43
  %47 = load i64, ptr %6, align 8, !tbaa !7
  store i64 %47, ptr %4, align 8
  store i32 1, ptr %10, align 4
  br label %66

48:                                               ; preds = %43
  br label %49

49:                                               ; preds = %48, %39
  %50 = load ptr, ptr %5, align 8, !tbaa !3
  %51 = load i64, ptr %9, align 8, !tbaa !7
  %52 = getelementptr inbounds nuw i8, ptr %50, i64 %51
  %53 = load i64, ptr %6, align 8, !tbaa !7
  %54 = load i64, ptr %9, align 8, !tbaa !7
  %55 = sub i64 %53, %54
  %56 = call noundef i64 @_ZN12_GLOBAL__N_114find_separatorEPKcm(ptr noundef %52, i64 noundef %55) #11
  %57 = load i64, ptr %9, align 8, !tbaa !7
  %58 = add i64 %57, %56
  store i64 %58, ptr %9, align 8, !tbaa !7
  %59 = load i8, ptr %8, align 1, !tbaa !12, !range !16, !noundef !17
  %60 = trunc i8 %59 to i1
  br i1 %60, label %61, label %64

61:                                               ; preds = %49
  %62 = load i64, ptr %9, align 8, !tbaa !7
  %63 = load ptr, ptr %7, align 8, !tbaa !3
  store i64 %62, ptr %63, align 8, !tbaa !7
  br label %64

64:                                               ; preds = %61, %49
  %65 = load i64, ptr %9, align 8, !tbaa !7
  store i64 %65, ptr %4, align 8
  store i32 1, ptr %10, align 4
  br label %66

66:                                               ; preds = %64, %46, %42, %38, %31
  call void @llvm.lifetime.end.p0(i64 8, ptr %9) #11
  call void @llvm.lifetime.end.p0(i64 1, ptr %8) #11
  br label %67

67:                                               ; preds = %66, %14
  %68 = load i64, ptr %4, align 8
  ret i64 %68
}

; Function Attrs: mustprogress nounwind uwtable
define available_externally noundef i64 @_ZNKSt7__cxx1112basic_stringIcSt11char_traitsIcESaIcEE4sizeEv(ptr noundef nonnull align 8 dereferenceable(32) %0) #2 align 2 {
  %2 = alloca ptr, align 8
  store ptr %0, ptr %2, align 8, !tbaa !3
  %3 = load ptr, ptr %2, align 8
  %4 = getelementptr inbounds nuw %"class.std::__cxx11::basic_string", ptr %3, i32 0, i32 1
  %5 = load i64, ptr %4, align 8, !tbaa !18
  ret i64 %5
}

; Function Attrs: mustprogress nounwind uwtable
define available_externally noundef ptr @_ZNKSt7__cxx1112basic_stringIcSt11char_traitsIcESaIcEE5c_strEv(ptr noundef nonnull align 8 dereferenceable(32) %0) #2 align 2 {
  %2 = alloca ptr, align 8
  store ptr %0, ptr %2, align 8, !tbaa !3
  %3 = load ptr, ptr %2, align 8
  %4 = call noundef ptr @_ZNKSt7__cxx1112basic_stringIcSt11char_traitsIcESaIcEE7_M_dataEv(ptr noundef nonnull align 8 dereferenceable(32) %3)
  ret ptr %4
}

; Function Attrs: mustprogress uwtable
define noundef i64 @_ZN5boost10filesystem6detail15path_algorithms19find_root_name_sizeERKNS0_4pathE(ptr noundef nonnull align 8 dereferenceable(32) %0) #3 align 2 {
  %2 = alloca ptr, align 8
  %3 = alloca i64, align 8
  store ptr %0, ptr %2, align 8, !tbaa !3
  call void @llvm.lifetime.start.p0(i64 8, ptr %3) #11
  store i64 0, ptr %3, align 8, !tbaa !7
  %4 = load ptr, ptr %2, align 8, !tbaa !3
  %5 = getelementptr inbounds nuw %"class.boost::filesystem::path", ptr %4, i32 0, i32 0
  %6 = call noundef ptr @_ZNKSt7__cxx1112basic_stringIcSt11char_traitsIcESaIcEE5c_strEv(ptr noundef nonnull align 8 dereferenceable(32) %5) #11
  %7 = load ptr, ptr %2, align 8, !tbaa !3
  %8 = getelementptr inbounds nuw %"class.boost::filesystem::path", ptr %7, i32 0, i32 0
  %9 = call noundef i64 @_ZNKSt7__cxx1112basic_stringIcSt11char_traitsIcESaIcEE4sizeEv(ptr noundef nonnull align 8 dereferenceable(32) %8) #11
  %10 = call noundef i64 @_ZN12_GLOBAL__N_125find_root_directory_startEPKcmRm(ptr noundef %6, i64 noundef %9, ptr noundef nonnull align 8 dereferenceable(8) %3)
  %11 = load i64, ptr %3, align 8, !tbaa !7
  call void @llvm.lifetime.end.p0(i64 8, ptr %3) #11
  ret i64 %11
}