; Function Attrs: mustprogress nofree nounwind willreturn memory(read, inaccessiblemem: none) uwtable
define noundef i64 @_ZN5boost10filesystem6detail15path_algorithms19find_root_name_sizeERKNS0_4pathE(ptr nocapture noundef nonnull readonly align 8 dereferenceable(32) %0) local_unnamed_addr #7 align 2 {
  %2 = load ptr, ptr %0, align 8, !tbaa !3
  %3 = getelementptr inbounds nuw i8, ptr %0, i64 8
  %4 = load i64, ptr %3, align 8, !tbaa !10
  %5 = icmp eq i64 %4, 0
  br i1 %5, label %_ZN12_GLOBAL__N_125find_root_directory_startEPKcmRm.exit, label %6

6:                                                ; preds = %1
  %7 = load i8, ptr %2, align 1, !tbaa !11
  %8 = icmp ne i8 %7, 47
  %.not.i = icmp eq i64 %4, 1
  %or.cond = or i1 %.not.i, %8
  br i1 %or.cond, label %_ZN12_GLOBAL__N_125find_root_directory_startEPKcmRm.exit, label %9

9:                                                ; preds = %6
  %10 = getelementptr inbounds i8, ptr %2, i64 1
  %11 = load i8, ptr %10, align 1, !tbaa !11
  %12 = icmp eq i8 %11, 47
  br i1 %12, label %13, label %_ZN12_GLOBAL__N_125find_root_directory_startEPKcmRm.exit

13:                                               ; preds = %9
  %14 = icmp eq i64 %4, 2
  br i1 %14, label %_ZN12_GLOBAL__N_125find_root_directory_startEPKcmRm.exit, label %15

15:                                               ; preds = %13
  %16 = getelementptr inbounds i8, ptr %2, i64 2
  %17 = load i8, ptr %16, align 1, !tbaa !11
  %18 = icmp eq i8 %17, 47
  br i1 %18, label %_ZN12_GLOBAL__N_125find_root_directory_startEPKcmRm.exit, label %19

19:                                               ; preds = %15
  %20 = add i64 %4, -2
  %21 = tail call noundef ptr @memchr(ptr noundef nonnull %16, i32 noundef 47, i64 noundef %20) #22
  %.not.i.i = icmp eq ptr %21, null
  %22 = ptrtoint ptr %21 to i64
  %23 = ptrtoint ptr %16 to i64
  %24 = sub i64 %22, %23
  %.0.i.i = select i1 %.not.i.i, i64 %20, i64 %24, !prof !14
  %25 = add i64 %.0.i.i, 2
  br label %_ZN12_GLOBAL__N_125find_root_directory_startEPKcmRm.exit

_ZN12_GLOBAL__N_125find_root_directory_startEPKcmRm.exit: ; preds = %13, %19, %1, %6, %9, %15
  %.0 = phi i64 [ 0, %1 ], [ 0, %15 ], [ 0, %9 ], [ 0, %6 ], [ %25, %19 ], [ 2, %13 ]
  ret i64 %.0
}